target datalayout = "e-m:e-p270:32:32-p271:32:32-p272:64:64-i64:64-i128:128-f80:128-n8:16:32:64-S128"
target triple = "x86_64-pc-linux-gnu"

%struct.FunctionCallInfoBaseData = type { ptr, ptr, ptr, i32, i8, i16, [0 x %struct.NullableDatum] }
%struct.NullableDatum = type { i64, i8 }
%struct.anon = type { i32, [0 x i8] }
%struct.ArrayType = type { i32, i32, i32, i32 }
%struct.ExpandedArrayHeader = type { %struct.ExpandedObjectHeader, i32, i32, ptr, ptr, i32, i16, i8, i8, ptr, ptr, i32, i32, i64, ptr, ptr, ptr }
%struct.ExpandedObjectHeader = type { i32, ptr, ptr, [10 x i8], [10 x i8] }

; Function Attrs: inlinehint nounwind uwtable
define internal i64 @Int32GetDatum(i32 noundef %0) #2 {
  %2 = alloca i32, align 4
  store i32 %0, ptr %2, align 4
  %3 = load i32, ptr %2, align 4
  %4 = sext i32 %3 to i64
  ret i64 %4
}

; Function Attrs: inlinehint nounwind uwtable
define internal i32 @DatumGetInt32(i64 noundef %0) #2 {
  %2 = alloca i64, align 8
  store i64 %0, ptr %2, align 8
  %3 = load i64, ptr %2, align 8
  %4 = trunc i64 %3 to i32
  ret i32 %4
}

; Function Attrs: nounwind uwtable
define dso_local i64 @array_length(ptr noundef %0) #0 {
  %2 = alloca i64, align 8
  %3 = alloca ptr, align 8
  %4 = alloca ptr, align 8
  %5 = alloca i32, align 4
  %6 = alloca ptr, align 8
  %7 = alloca i32, align 4
  %8 = alloca i32, align 4
  store ptr %0, ptr %3, align 8
  call void @llvm.lifetime.start.p0(i64 8, ptr %4) #11
  %9 = load ptr, ptr %3, align 8
  %10 = getelementptr inbounds nuw %struct.FunctionCallInfoBaseData, ptr %9, i32 0, i32 6
  %11 = getelementptr inbounds [0 x %struct.NullableDatum], ptr %10, i64 0, i64 0
  %12 = getelementptr inbounds nuw %struct.NullableDatum, ptr %11, i32 0, i32 0
  %13 = load i64, ptr %12, align 8
  %14 = call ptr @DatumGetAnyArrayP(i64 noundef %13)
  store ptr %14, ptr %4, align 8
  call void @llvm.lifetime.start.p0(i64 4, ptr %5) #11
  %15 = load ptr, ptr %3, align 8
  %16 = getelementptr inbounds nuw %struct.FunctionCallInfoBaseData, ptr %15, i32 0, i32 6
  %17 = getelementptr inbounds [0 x %struct.NullableDatum], ptr %16, i64 0, i64 1
  %18 = getelementptr inbounds nuw %struct.NullableDatum, ptr %17, i32 0, i32 0
  %19 = load i64, ptr %18, align 8
  %20 = call i32 @DatumGetInt32(i64 noundef %19)
  store i32 %20, ptr %5, align 4
  call void @llvm.lifetime.start.p0(i64 8, ptr %6) #11
  call void @llvm.lifetime.start.p0(i64 4, ptr %7) #11
  %21 = load ptr, ptr %4, align 8
  %22 = getelementptr inbounds nuw %struct.anon, ptr %21, i32 0, i32 0
  %23 = load i32, ptr %22, align 4
  %24 = icmp eq i32 %23, -1
  br i1 %24, label %25, label %29

25:                                               ; preds = %1
  %26 = load ptr, ptr %4, align 8
  %27 = getelementptr inbounds nuw %struct.ExpandedArrayHeader, ptr %26, i32 0, i32 2
  %28 = load i32, ptr %27, align 4
  br label %33

29:                                               ; preds = %1
  %30 = load ptr, ptr %4, align 8
  %31 = getelementptr inbounds nuw %struct.ArrayType, ptr %30, i32 0, i32 1
  %32 = load i32, ptr %31, align 4
  br label %33

33:                                               ; preds = %29, %25
  %34 = phi i32 [ %28, %25 ], [ %32, %29 ]
  %35 = icmp sle i32 %34, 0
  br i1 %35, label %52, label %36

36:                                               ; preds = %33
  %37 = load ptr, ptr %4, align 8
  %38 = getelementptr inbounds nuw %struct.anon, ptr %37, i32 0, i32 0
  %39 = load i32, ptr %38, align 4
  %40 = icmp eq i32 %39, -1
  br i1 %40, label %41, label %45

41:                                               ; preds = %36
  %42 = load ptr, ptr %4, align 8
  %43 = getelementptr inbounds nuw %struct.ExpandedArrayHeader, ptr %42, i32 0, i32 2
  %44 = load i32, ptr %43, align 4
  br label %49

45:                                               ; preds = %36
  %46 = load ptr, ptr %4, align 8
  %47 = getelementptr inbounds nuw %struct.ArrayType, ptr %46, i32 0, i32 1
  %48 = load i32, ptr %47, align 4
  br label %49

49:                                               ; preds = %45, %41
  %50 = phi i32 [ %44, %41 ], [ %48, %45 ]
  %51 = icmp sgt i32 %50, 6
  br i1 %51, label %52, label %58

52:                                               ; preds = %49, %33
  br label %53

53:                                               ; preds = %52
  %54 = load ptr, ptr %3, align 8
  %55 = getelementptr inbounds nuw %struct.FunctionCallInfoBaseData, ptr %54, i32 0, i32 4
  store i8 1, ptr %55, align 4
  store i64 0, ptr %2, align 8
  store i32 1, ptr %8, align 4
  br label %106

56:                                               ; No predecessors!
  br label %57

57:                                               ; preds = %56
  br label %58

58:                                               ; preds = %57, %49
  %59 = load i32, ptr %5, align 4
  %60 = icmp sle i32 %59, 0
  br i1 %60, label %78, label %61

61:                                               ; preds = %58
  %62 = load i32, ptr %5, align 4
  %63 = load ptr, ptr %4, align 8
  %64 = getelementptr inbounds nuw %struct.anon, ptr %63, i32 0, i32 0
  %65 = load i32, ptr %64, align 4
  %66 = icmp eq i32 %65, -1
  br i1 %66, label %67, label %71

67:                                               ; preds = %61
  %68 = load ptr, ptr %4, align 8
  %69 = getelementptr inbounds nuw %struct.ExpandedArrayHeader, ptr %68, i32 0, i32 2
  %70 = load i32, ptr %69, align 4
  br label %75

71:                                               ; preds = %61
  %72 = load ptr, ptr %4, align 8
  %73 = getelementptr inbounds nuw %struct.ArrayType, ptr %72, i32 0, i32 1
  %74 = load i32, ptr %73, align 4
  br label %75

75:                                               ; preds = %71, %67
  %76 = phi i32 [ %70, %67 ], [ %74, %71 ]
  %77 = icmp sgt i32 %62, %76
  br i1 %77, label %78, label %84

78:                                               ; preds = %75, %58
  br label %79

79:                                               ; preds = %78
  %80 = load ptr, ptr %3, align 8
  %81 = getelementptr inbounds nuw %struct.FunctionCallInfoBaseData, ptr %80, i32 0, i32 4
  store i8 1, ptr %81, align 4
  store i64 0, ptr %2, align 8
  store i32 1, ptr %8, align 4
  br label %106

82:                                               ; No predecessors!
  br label %83

83:                                               ; preds = %82
  br label %84

84:                                               ; preds = %83, %75
  %85 = load ptr, ptr %4, align 8
  %86 = getelementptr inbounds nuw %struct.anon, ptr %85, i32 0, i32 0
  %87 = load i32, ptr %86, align 4
  %88 = icmp eq i32 %87, -1
  br i1 %88, label %89, label %93

89:                                               ; preds = %84
  %90 = load ptr, ptr %4, align 8
  %91 = getelementptr inbounds nuw %struct.ExpandedArrayHeader, ptr %90, i32 0, i32 3
  %92 = load ptr, ptr %91, align 8
  br label %96

93:                                               ; preds = %84
  %94 = load ptr, ptr %4, align 8
  %95 = getelementptr inbounds nuw i8, ptr %94, i64 16
  br label %96

96:                                               ; preds = %93, %89
  %97 = phi ptr [ %92, %89 ], [ %95, %93 ]
  store ptr %97, ptr %6, align 8
  %98 = load ptr, ptr %6, align 8
  %99 = load i32, ptr %5, align 4
  %100 = sub i32 %99, 1
  %101 = sext i32 %100 to i64
  %102 = getelementptr inbounds i32, ptr %98, i64 %101
  %103 = load i32, ptr %102, align 4
  store i32 %103, ptr %7, align 4
  %104 = load i32, ptr %7, align 4
  %105 = call i64 @Int32GetDatum(i32 noundef %104)
  store i64 %105, ptr %2, align 8
  store i32 1, ptr %8, align 4
  br label %106

106:                                              ; preds = %96, %79, %53
  call void @llvm.lifetime.end.p0(i64 4, ptr %7) #11
  call void @llvm.lifetime.end.p0(i64 8, ptr %6) #11
  call void @llvm.lifetime.end.p0(i64 4, ptr %5) #11
  call void @llvm.lifetime.end.p0(i64 8, ptr %4) #11
  %107 = load i64, ptr %2, align 8
  ret i64 %107
}