; Function Attrs: nounwind uwtable
define dso_local range(i64 -2147483648, 2147483648) i64 @array_length(ptr noundef captures(none) %0) local_unnamed_addr #0 {
  %2 = getelementptr inbounds nuw i8, ptr %0, i64 32
  %3 = load i64, ptr %2, align 8
  %4 = tail call ptr @DatumGetAnyArrayP(i64 noundef %3) #18
  %5 = getelementptr inbounds nuw i8, ptr %0, i64 48
  %6 = load i64, ptr %5, align 8
  %7 = load i32, ptr %4, align 4
  %8 = icmp eq i32 %7, -1
  %.in.v = select i1 %8, i64 52, i64 4
  %.in = getelementptr inbounds nuw i8, ptr %4, i64 %.in.v
  %9 = load i32, ptr %.in, align 4
  %10 = add i32 %9, -7
  %or.cond = icmp ult i32 %10, -6
  br i1 %or.cond, label %11, label %13

11:                                               ; preds = %1
  %12 = getelementptr inbounds nuw i8, ptr %0, i64 28
  store i8 1, ptr %12, align 4
  br label %32

13:                                               ; preds = %1
  %14 = trunc i64 %6 to i32
  %15 = icmp slt i32 %14, 1
  %16 = icmp samesign ult i32 %9, %14
  %or.cond24 = select i1 %15, i1 true, i1 %16
  br i1 %or.cond24, label %17, label %19

17:                                               ; preds = %13
  %18 = getelementptr inbounds nuw i8, ptr %0, i64 28
  store i8 1, ptr %18, align 4
  br label %32

19:                                               ; preds = %13
  br i1 %8, label %20, label %23

20:                                               ; preds = %19
  %21 = getelementptr inbounds nuw i8, ptr %4, i64 56
  %22 = load ptr, ptr %21, align 8
  br label %25

23:                                               ; preds = %19
  %24 = getelementptr inbounds nuw i8, ptr %4, i64 16
  br label %25

25:                                               ; preds = %23, %20
  %26 = phi ptr [ %22, %20 ], [ %24, %23 ]
  %27 = and i64 %6, 2147483647
  %28 = getelementptr i32, ptr %26, i64 %27
  %29 = getelementptr i8, ptr %28, i64 -4
  %30 = load i32, ptr %29, align 4
  %31 = sext i32 %30 to i64
  br label %32

32:                                               ; preds = %25, %17, %11
  %.0 = phi i64 [ 0, %11 ], [ 0, %17 ], [ %31, %25 ]
  ret i64 %.0
}